; ModuleID = 'source-C-CXX/57/671.cpp'
source_filename = "source-C-CXX/57/671.cpp"
target datalayout = "e-m:e-p270:32:32-p271:32:32-p272:64:64-i64:64-f80:128-n8:16:32:64-S128"
target triple = "x86_64-pc-linux-gnu"

%"class.std::ios_base::Init" = type { i8 }
%"class.std::basic_istream" = type { i32 (...)**, i64, %"class.std::basic_ios" }
%"class.std::basic_ios" = type { %"class.std::ios_base", %"class.std::basic_ostream"*, i8, i8, %"class.std::basic_streambuf"*, %"class.std::ctype"*, %"class.std::num_put"*, %"class.std::num_get"* }
%"class.std::ios_base" = type { i32 (...)**, i64, i64, i32, i32, i32, %"struct.std::ios_base::_Callback_list"*, %"struct.std::ios_base::_Words", [8 x %"struct.std::ios_base::_Words"], i32, %"struct.std::ios_base::_Words"*, %"class.std::locale" }
%"struct.std::ios_base::_Callback_list" = type { %"struct.std::ios_base::_Callback_list"*, void (i32, %"class.std::ios_base"*, i32)*, i32, i32 }
%"struct.std::ios_base::_Words" = type { i8*, i64 }
%"class.std::locale" = type { %"class.std::locale::_Impl"* }
%"class.std::locale::_Impl" = type { i32, %"class.std::locale::facet"**, i64, %"class.std::locale::facet"**, i8** }
%"class.std::locale::facet" = type <{ i32 (...)**, i32, [4 x i8] }>
%"class.std::basic_ostream" = type { i32 (...)**, %"class.std::basic_ios" }
%"class.std::basic_streambuf" = type { i32 (...)**, i8*, i8*, i8*, i8*, i8*, i8*, %"class.std::locale" }
%"class.std::ctype" = type <{ %"class.std::locale::facet.base", [4 x i8], %struct.__locale_struct*, i8, [7 x i8], i32*, i32*, i16*, i8, [256 x i8], [256 x i8], i8, [6 x i8] }>
%"class.std::locale::facet.base" = type <{ i32 (...)**, i32 }>
%struct.__locale_struct = type { [13 x %struct.__locale_data*], i16*, i32*, i32*, [13 x i8*] }
%struct.__locale_data = type opaque
%"class.std::num_put" = type { %"class.std::locale::facet.base", [4 x i8] }
%"class.std::num_get" = type { %"class.std::locale::facet.base", [4 x i8] }

@_ZStL8__ioinit = internal global %"class.std::ios_base::Init" zeroinitializer, align 1
@__dso_handle = external hidden global i8
@_ZSt3cin = external global %"class.std::basic_istream", align 8
@_ZSt4cout = external global %"class.std::basic_ostream", align 8
@llvm.global_ctors = appending global [1 x { i32, void ()*, i8* }] [{ i32, void ()*, i8* } { i32 65535, void ()* @_GLOBAL__sub_I_671.cpp, i8* null }]

declare void @_ZNSt8ios_base4InitC1Ev(%"class.std::ios_base::Init"* nonnull align 1 dereferenceable(1)) unnamed_addr #0

; Function Attrs: nounwind
declare void @_ZNSt8ios_base4InitD1Ev(%"class.std::ios_base::Init"* nonnull align 1 dereferenceable(1)) unnamed_addr #1

; Function Attrs: nofree nounwind
declare i32 @__cxa_atexit(void (i8*)*, i8*, i8*) local_unnamed_addr #2

; Function Attrs: mustprogress norecurse sspstrong uwtable
define dso_local i32 @main() local_unnamed_addr #3 {
  %1 = alloca i32, align 4
  %2 = alloca [81 x i8], align 16
  %3 = bitcast i32* %1 to i8*
  call void @llvm.lifetime.start.p0i8(i64 4, i8* nonnull %3) #7
  %4 = getelementptr inbounds [81 x i8], [81 x i8]* %2, i64 0, i64 0
  call void @llvm.lifetime.start.p0i8(i64 81, i8* nonnull %4) #7
  %5 = call nonnull align 8 dereferenceable(16) %"class.std::basic_istream"* @_ZNSirsERi(%"class.std::basic_istream"* nonnull align 8 dereferenceable(16) @_ZSt3cin, i32* nonnull align 4 dereferenceable(4) %1)
  %6 = load i32, i32* %1, align 4, !tbaa !5
  %7 = icmp slt i32 %6, 1
  br i1 %7, label %151, label %8

8:                                                ; preds = %0, %144
  %9 = phi i32 [ %148, %144 ], [ 1, %0 ]
  %10 = icmp eq i32 %9, 1
  br i1 %10, label %11, label %13

11:                                               ; preds = %8
  %12 = call i32 @_ZNSi3getEv(%"class.std::basic_istream"* nonnull align 8 dereferenceable(16) @_ZSt3cin)
  br label %13

13:                                               ; preds = %11, %8
  %14 = load i8*, i8** bitcast (%"class.std::basic_istream"* @_ZSt3cin to i8**), align 8, !tbaa !9
  %15 = getelementptr i8, i8* %14, i64 -24
  %16 = bitcast i8* %15 to i64*
  %17 = load i64, i64* %16, align 8
  %18 = add nsw i64 %17, 240
  %19 = getelementptr inbounds i8, i8* bitcast (%"class.std::basic_istream"* @_ZSt3cin to i8*), i64 %18
  %20 = bitcast i8* %19 to %"class.std::ctype"**
  %21 = load %"class.std::ctype"*, %"class.std::ctype"** %20, align 8, !tbaa !11
  %22 = icmp eq %"class.std::ctype"* %21, null
  br i1 %22, label %23, label %24

23:                                               ; preds = %13
  call void @_ZSt16__throw_bad_castv() #8
  unreachable

24:                                               ; preds = %13
  %25 = getelementptr inbounds %"class.std::ctype", %"class.std::ctype"* %21, i64 0, i32 8
  %26 = load i8, i8* %25, align 8, !tbaa !15
  %27 = icmp eq i8 %26, 0
  br i1 %27, label %31, label %28

28:                                               ; preds = %24
  %29 = getelementptr inbounds %"class.std::ctype", %"class.std::ctype"* %21, i64 0, i32 9, i64 10
  %30 = load i8, i8* %29, align 1, !tbaa !17
  br label %37

31:                                               ; preds = %24
  call void @_ZNKSt5ctypeIcE13_M_widen_initEv(%"class.std::ctype"* nonnull align 8 dereferenceable(570) %21)
  %32 = bitcast %"class.std::ctype"* %21 to i8 (%"class.std::ctype"*, i8)***
  %33 = load i8 (%"class.std::ctype"*, i8)**, i8 (%"class.std::ctype"*, i8)*** %32, align 8, !tbaa !9
  %34 = getelementptr inbounds i8 (%"class.std::ctype"*, i8)*, i8 (%"class.std::ctype"*, i8)** %33, i64 6
  %35 = load i8 (%"class.std::ctype"*, i8)*, i8 (%"class.std::ctype"*, i8)** %34, align 8
  %36 = call signext i8 %35(%"class.std::ctype"* nonnull align 8 dereferenceable(570) %21, i8 signext 10)
  br label %37

37:                                               ; preds = %28, %31
  %38 = phi i8 [ %30, %28 ], [ %36, %31 ]
  %39 = call nonnull align 8 dereferenceable(16) %"class.std::basic_istream"* @_ZNSi7getlineEPclc(%"class.std::basic_istream"* nonnull align 8 dereferenceable(16) @_ZSt3cin, i8* nonnull %4, i64 81, i8 signext %38)
  br label %40

40:                                               ; preds = %40, %37
  %41 = phi i64 [ %45, %40 ], [ 0, %37 ]
  %42 = getelementptr inbounds [81 x i8], [81 x i8]* %2, i64 0, i64 %41
  %43 = load i8, i8* %42, align 1, !tbaa !17
  %44 = icmp eq i8 %43, 0
  %45 = add nuw i64 %41, 1
  br i1 %44, label %46, label %40, !llvm.loop !18

46:                                               ; preds = %40
  %47 = trunc i64 %41 to i32
  %48 = load i8, i8* %4, align 16, !tbaa !17
  %49 = icmp eq i8 %48, 95
  %50 = and i8 %48, -33
  %51 = add i8 %50, -65
  %52 = icmp ult i8 %51, 26
  %53 = or i1 %52, %49
  %54 = zext i1 %53 to i32
  %55 = icmp ugt i32 %47, 1
  br i1 %55, label %56, label %116

56:                                               ; preds = %46
  %57 = and i64 %41, 4294967295
  %58 = add nsw i64 %57, -1
  %59 = and i64 %58, 1
  %60 = icmp eq i64 %57, 2
  br i1 %60, label %97, label %61

61:                                               ; preds = %56
  %62 = and i64 %58, -2
  br label %63

63:                                               ; preds = %63, %61
  %64 = phi i64 [ 1, %61 ], [ %94, %63 ]
  %65 = phi i32 [ %54, %61 ], [ %93, %63 ]
  %66 = phi i64 [ %62, %61 ], [ %95, %63 ]
  %67 = getelementptr inbounds [81 x i8], [81 x i8]* %2, i64 0, i64 %64
  %68 = load i8, i8* %67, align 1, !tbaa !17
  %69 = and i8 %68, -33
  %70 = add i8 %69, -65
  %71 = icmp ult i8 %70, 26
  %72 = add i8 %68, -48
  %73 = icmp ult i8 %72, 10
  %74 = select i1 %71, i1 true, i1 %73
  %75 = icmp eq i8 %68, 95
  %76 = select i1 %74, i1 true, i1 %75
  %77 = select i1 %76, i32 %65, i32 0
  %78 = icmp eq i8 %68, 32
  %79 = select i1 %78, i32 0, i32 %77
  %80 = add nuw nsw i64 %64, 1
  %81 = getelementptr inbounds [81 x i8], [81 x i8]* %2, i64 0, i64 %80
  %82 = load i8, i8* %81, align 1, !tbaa !17
  %83 = and i8 %82, -33
  %84 = add i8 %83, -65
  %85 = icmp ult i8 %84, 26
  %86 = add i8 %82, -48
  %87 = icmp ult i8 %86, 10
  %88 = select i1 %85, i1 true, i1 %87
  %89 = icmp eq i8 %82, 95
  %90 = select i1 %88, i1 true, i1 %89
  %91 = select i1 %90, i32 %79, i32 0
  %92 = icmp eq i8 %82, 32
  %93 = select i1 %92, i32 0, i32 %91
  %94 = add nuw nsw i64 %64, 2
  %95 = add i64 %66, -2
  %96 = icmp eq i64 %95, 0
  br i1 %96, label %97, label %63, !llvm.loop !20

97:                                               ; preds = %63, %56
  %98 = phi i32 [ undef, %56 ], [ %93, %63 ]
  %99 = phi i64 [ 1, %56 ], [ %94, %63 ]
  %100 = phi i32 [ %54, %56 ], [ %93, %63 ]
  %101 = icmp eq i64 %59, 0
  br i1 %101, label %116, label %102

102:                                              ; preds = %97
  %103 = getelementptr inbounds [81 x i8], [81 x i8]* %2, i64 0, i64 %99
  %104 = load i8, i8* %103, align 1, !tbaa !17
  %105 = icmp eq i8 %104, 32
  %106 = and i8 %104, -33
  %107 = add i8 %106, -65
  %108 = icmp ult i8 %107, 26
  %109 = add i8 %104, -48
  %110 = icmp ult i8 %109, 10
  %111 = select i1 %108, i1 true, i1 %110
  %112 = icmp eq i8 %104, 95
  %113 = select i1 %111, i1 true, i1 %112
  %114 = select i1 %113, i32 %100, i32 0
  %115 = select i1 %105, i32 0, i32 %114
  br label %116

116:                                              ; preds = %102, %97, %46
  %117 = phi i32 [ %54, %46 ], [ %98, %97 ], [ %115, %102 ]
  %118 = call nonnull align 8 dereferenceable(8) %"class.std::basic_ostream"* @_ZNSolsEi(%"class.std::basic_ostream"* nonnull align 8 dereferenceable(8) @_ZSt4cout, i32 %117)
  %119 = bitcast %"class.std::basic_ostream"* %118 to i8**
  %120 = load i8*, i8** %119, align 8, !tbaa !9
  %121 = getelementptr i8, i8* %120, i64 -24
  %122 = bitcast i8* %121 to i64*
  %123 = load i64, i64* %122, align 8
  %124 = bitcast %"class.std::basic_ostream"* %118 to i8*
  %125 = add nsw i64 %123, 240
  %126 = getelementptr inbounds i8, i8* %124, i64 %125
  %127 = bitcast i8* %126 to %"class.std::ctype"**
  %128 = load %"class.std::ctype"*, %"class.std::ctype"** %127, align 8, !tbaa !11
  %129 = icmp eq %"class.std::ctype"* %128, null
  br i1 %129, label %130, label %131

130:                                              ; preds = %116
  call void @_ZSt16__throw_bad_castv() #8
  unreachable

131:                                              ; preds = %116
  %132 = getelementptr inbounds %"class.std::ctype", %"class.std::ctype"* %128, i64 0, i32 8
  %133 = load i8, i8* %132, align 8, !tbaa !15
  %134 = icmp eq i8 %133, 0
  br i1 %134, label %138, label %135

135:                                              ; preds = %131
  %136 = getelementptr inbounds %"class.std::ctype", %"class.std::ctype"* %128, i64 0, i32 9, i64 10
  %137 = load i8, i8* %136, align 1, !tbaa !17
  br label %144

138:                                              ; preds = %131
  call void @_ZNKSt5ctypeIcE13_M_widen_initEv(%"class.std::ctype"* nonnull align 8 dereferenceable(570) %128)
  %139 = bitcast %"class.std::ctype"* %128 to i8 (%"class.std::ctype"*, i8)***
  %140 = load i8 (%"class.std::ctype"*, i8)**, i8 (%"class.std::ctype"*, i8)*** %139, align 8, !tbaa !9
  %141 = getelementptr inbounds i8 (%"class.std::ctype"*, i8)*, i8 (%"class.std::ctype"*, i8)** %140, i64 6
  %142 = load i8 (%"class.std::ctype"*, i8)*, i8 (%"class.std::ctype"*, i8)** %141, align 8
  %143 = call signext i8 %142(%"class.std::ctype"* nonnull align 8 dereferenceable(570) %128, i8 signext 10)
  br label %144

144:                                              ; preds = %135, %138
  %145 = phi i8 [ %137, %135 ], [ %143, %138 ]
  %146 = call nonnull align 8 dereferenceable(8) %"class.std::basic_ostream"* @_ZNSo3putEc(%"class.std::basic_ostream"* nonnull align 8 dereferenceable(8) %118, i8 signext %145)
  %147 = call nonnull align 8 dereferenceable(8) %"class.std::basic_ostream"* @_ZNSo5flushEv(%"class.std::basic_ostream"* nonnull align 8 dereferenceable(8) %146)
  %148 = add nuw nsw i32 %9, 1
  %149 = load i32, i32* %1, align 4, !tbaa !5
  %150 = icmp slt i32 %9, %149
  br i1 %150, label %8, label %151, !llvm.loop !21

151:                                              ; preds = %144, %0
  call void @llvm.lifetime.end.p0i8(i64 81, i8* nonnull %4) #7
  call void @llvm.lifetime.end.p0i8(i64 4, i8* nonnull %3) #7
  ret i32 0
}

; Function Attrs: argmemonly mustprogress nofree nosync nounwind willreturn
declare void @llvm.lifetime.start.p0i8(i64 immarg, i8* nocapture) #4

declare nonnull align 8 dereferenceable(16) %"class.std::basic_istream"* @_ZNSirsERi(%"class.std::basic_istream"* nonnull align 8 dereferenceable(16), i32* nonnull align 4 dereferenceable(4)) local_unnamed_addr #0

declare i32 @_ZNSi3getEv(%"class.std::basic_istream"* nonnull align 8 dereferenceable(16)) local_unnamed_addr #0

declare nonnull align 8 dereferenceable(8) %"class.std::basic_ostream"* @_ZNSolsEi(%"class.std::basic_ostream"* nonnull align 8 dereferenceable(8), i32) local_unnamed_addr #0

; Function Attrs: argmemonly mustprogress nofree nosync nounwind willreturn
declare void @llvm.lifetime.end.p0i8(i64 immarg, i8* nocapture) #4

declare nonnull align 8 dereferenceable(16) %"class.std::basic_istream"* @_ZNSi7getlineEPclc(%"class.std::basic_istream"* nonnull align 8 dereferenceable(16), i8*, i64, i8 signext) local_unnamed_addr #0

; Function Attrs: noreturn
declare void @_ZSt16__throw_bad_castv() local_unnamed_addr #5

declare void @_ZNKSt5ctypeIcE13_M_widen_initEv(%"class.std::ctype"* nonnull align 8 dereferenceable(570)) local_unnamed_addr #0

declare nonnull align 8 dereferenceable(8) %"class.std::basic_ostream"* @_ZNSo3putEc(%"class.std::basic_ostream"* nonnull align 8 dereferenceable(8), i8 signext) local_unnamed_addr #0

declare nonnull align 8 dereferenceable(8) %"class.std::basic_ostream"* @_ZNSo5flushEv(%"class.std::basic_ostream"* nonnull align 8 dereferenceable(8)) local_unnamed_addr #0

; Function Attrs: sspstrong uwtable
define internal void @_GLOBAL__sub_I_671.cpp() #6 section ".text.startup" {
  tail call void @_ZNSt8ios_base4InitC1Ev(%"class.std::ios_base::Init"* nonnull align 1 dereferenceable(1) @_ZStL8__ioinit)
  %1 = tail call i32 @__cxa_atexit(void (i8*)* bitcast (void (%"class.std::ios_base::Init"*)* @_ZNSt8ios_base4InitD1Ev to void (i8*)*), i8* getelementptr inbounds (%"class.std::ios_base::Init", %"class.std::ios_base::Init"* @_ZStL8__ioinit, i64 0, i32 0), i8* nonnull @__dso_handle) #7
  ret void
}


!llvm.module.flags = !{!0, !1, !2, !3}
!llvm.ident = !{!4}

!0 = !{i32 1, !"wchar_size", i32 4}
!1 = !{i32 7, !"PIC Level", i32 2}
!2 = !{i32 7, !"PIE Level", i32 2}
!3 = !{i32 7, !"uwtable", i32 1}
!4 = !{!"clang version 13.0.0"}
!5 = !{!6, !6, i64 0}
!6 = !{!"int", !7, i64 0}
!7 = !{!"omnipotent char", !8, i64 0}
!8 = !{!"Simple C++ TBAA"}
!9 = !{!10, !10, i64 0}
!10 = !{!"vtable pointer", !8, i64 0}
!11 = !{!12, !13, i64 240}
!12 = !{!"_ZTSSt9basic_iosIcSt11char_traitsIcEE", !13, i64 216, !7, i64 224, !14, i64 225, !13, i64 232, !13, i64 240, !13, i64 248, !13, i64 256}
!13 = !{!"any pointer", !7, i64 0}
!14 = !{!"bool", !7, i64 0}
!15 = !{!16, !7, i64 56}
!16 = !{!"_ZTSSt5ctypeIcE", !13, i64 16, !14, i64 24, !13, i64 32, !13, i64 40, !13, i64 48, !7, i64 56, !7, i64 57, !7, i64 313, !7, i64 569}
!17 = !{!7, !7, i64 0}
!18 = distinct !{!18, !19}
!19 = !{!"llvm.loop.mustprogress"}
!20 = distinct !{!20, !19}
!21 = distinct !{!21, !19}
